target datalayout = "e-m:e-p270:32:32-p271:32:32-p272:64:64-i64:64-i128:128-f80:128-n8:16:32:64-S128"
target triple = "x86_64-pc-linux-gnu"

%"class.cvc5::internal::SkolemManager" = type { %"class.std::map", %"class.std::map.0", i64 }
%"class.std::map" = type { %"class.std::_Rb_tree" }
%"class.std::_Rb_tree" = type { %"struct.std::_Rb_tree<std::tuple<cvc5::SkolemId, cvc5::internal::TypeNode, cvc5::internal::NodeTemplate<true>>, std::pair<const std::tuple<cvc5::SkolemId, cvc5::internal::TypeNode, cvc5::internal::NodeTemplate<true>>, cvc5::internal::NodeTemplate<true>>, std::_Select1st<std::pair<const std::tuple<cvc5::SkolemId, cvc5::internal::TypeNode, cvc5::internal::NodeTemplate<true>>, cvc5::internal::NodeTemplate<true>>>, std::less<std::tuple<cvc5::SkolemId, cvc5::internal::TypeNode, cvc5::internal::NodeTemplate<true>>>>::_Rb_tree_impl" }
%"struct.std::_Rb_tree<std::tuple<cvc5::SkolemId, cvc5::internal::TypeNode, cvc5::internal::NodeTemplate<true>>, std::pair<const std::tuple<cvc5::SkolemId, cvc5::internal::TypeNode, cvc5::internal::NodeTemplate<true>>, cvc5::internal::NodeTemplate<true>>, std::_Select1st<std::pair<const std::tuple<cvc5::SkolemId, cvc5::internal::TypeNode, cvc5::internal::NodeTemplate<true>>, cvc5::internal::NodeTemplate<true>>>, std::less<std::tuple<cvc5::SkolemId, cvc5::internal::TypeNode, cvc5::internal::NodeTemplate<true>>>>::_Rb_tree_impl" = type { [8 x i8], %"struct.std::_Rb_tree_header" }
%"struct.std::_Rb_tree_header" = type { %"struct.std::_Rb_tree_node_base", i64 }
%"struct.std::_Rb_tree_node_base" = type { i32, ptr, ptr, ptr }
%"class.std::map.0" = type { %"class.std::_Rb_tree.1" }
%"class.std::_Rb_tree.1" = type { %"struct.std::_Rb_tree<cvc5::internal::NodeTemplate<true>, std::pair<const cvc5::internal::NodeTemplate<true>, std::tuple<cvc5::SkolemId, cvc5::internal::TypeNode, cvc5::internal::NodeTemplate<true>>>, std::_Select1st<std::pair<const cvc5::internal::NodeTemplate<true>, std::tuple<cvc5::SkolemId, cvc5::internal::TypeNode, cvc5::internal::NodeTemplate<true>>>>, std::less<cvc5::internal::NodeTemplate<true>>>::_Rb_tree_impl" }
%"struct.std::_Rb_tree<cvc5::internal::NodeTemplate<true>, std::pair<const cvc5::internal::NodeTemplate<true>, std::tuple<cvc5::SkolemId, cvc5::internal::TypeNode, cvc5::internal::NodeTemplate<true>>>, std::_Select1st<std::pair<const cvc5::internal::NodeTemplate<true>, std::tuple<cvc5::SkolemId, cvc5::internal::TypeNode, cvc5::internal::NodeTemplate<true>>>>, std::less<cvc5::internal::NodeTemplate<true>>>::_Rb_tree_impl" = type { [8 x i8], %"struct.std::_Rb_tree_header" }

; Function Attrs: mustprogress nounwind uwtable
define linkonce_odr hidden void @_ZNSt15__new_allocatorISt13_Rb_tree_nodeISt4pairIKN4cvc58internal12NodeTemplateILb1EEESt5tupleIJNS2_8SkolemIdENS3_8TypeNodeES5_EEEEEC2Ev(ptr noundef nonnull align 1 dereferenceable(1) %0) unnamed_addr #4 comdat align 2 {
  %2 = alloca ptr, align 8
  store ptr %0, ptr %2, align 8, !tbaa !219
  ret void
}

; Function Attrs: noinline noreturn nounwind uwtable
define linkonce_odr hidden void @__clang_call_terminate(ptr noundef %0) #11 comdat {
  %2 = call ptr @__cxa_begin_catch(ptr %0) #3
  call void @_ZSt9terminatev() #20
  unreachable
}

; Function Attrs: mustprogress nounwind uwtable
define linkonce_odr hidden void @_ZNSt15_Rb_tree_header8_M_resetEv(ptr noundef nonnull align 8 dereferenceable(40) %0) #4 comdat align 2 {
  %2 = alloca ptr, align 8
  store ptr %0, ptr %2, align 8, !tbaa !202
  %3 = load ptr, ptr %2, align 8
  %4 = getelementptr inbounds nuw %"struct.std::_Rb_tree_header", ptr %3, i32 0, i32 0
  %5 = getelementptr inbounds nuw %"struct.std::_Rb_tree_node_base", ptr %4, i32 0, i32 1
  store ptr null, ptr %5, align 8, !tbaa !207
  %6 = getelementptr inbounds nuw %"struct.std::_Rb_tree_header", ptr %3, i32 0, i32 0
  %7 = getelementptr inbounds nuw %"struct.std::_Rb_tree_header", ptr %3, i32 0, i32 0
  %8 = getelementptr inbounds nuw %"struct.std::_Rb_tree_node_base", ptr %7, i32 0, i32 2
  store ptr %6, ptr %8, align 8, !tbaa !208
  %9 = getelementptr inbounds nuw %"struct.std::_Rb_tree_header", ptr %3, i32 0, i32 0
  %10 = getelementptr inbounds nuw %"struct.std::_Rb_tree_header", ptr %3, i32 0, i32 0
  %11 = getelementptr inbounds nuw %"struct.std::_Rb_tree_node_base", ptr %10, i32 0, i32 3
  store ptr %9, ptr %11, align 8, !tbaa !209
  %12 = getelementptr inbounds nuw %"struct.std::_Rb_tree_header", ptr %3, i32 0, i32 1
  store i64 0, ptr %12, align 8, !tbaa !210
  ret void
}

; Function Attrs: mustprogress nounwind uwtable
define linkonce_odr hidden void @_ZNSt15__new_allocatorISt13_Rb_tree_nodeISt4pairIKSt5tupleIJN4cvc58SkolemIdENS3_8internal8TypeNodeENS5_12NodeTemplateILb1EEEEES8_EEEC2Ev(ptr noundef nonnull align 1 dereferenceable(1) %0) unnamed_addr #4 comdat align 2 {
  %2 = alloca ptr, align 8
  store ptr %0, ptr %2, align 8, !tbaa !205
  ret void
}

; Function Attrs: mustprogress nounwind uwtable
define linkonce_odr hidden void @_ZNSt20_Rb_tree_key_compareISt4lessIN4cvc58internal12NodeTemplateILb1EEEEEC2Ev(ptr noundef nonnull align 1 dereferenceable(1) %0) unnamed_addr #4 comdat align 2 {
  %2 = alloca ptr, align 8
  store ptr %0, ptr %2, align 8, !tbaa !217
  ret void
}

; Function Attrs: mustprogress nounwind uwtable
define linkonce_odr hidden void @_ZNSaISt13_Rb_tree_nodeISt4pairIKN4cvc58internal12NodeTemplateILb1EEESt5tupleIJNS1_8SkolemIdENS2_8TypeNodeES4_EEEEEC2Ev(ptr noundef nonnull align 1 dereferenceable(1) %0) unnamed_addr #4 comdat align 2 {
  %2 = alloca ptr, align 8
  store ptr %0, ptr %2, align 8, !tbaa !215
  %3 = load ptr, ptr %2, align 8
  call void @_ZNSt15__new_allocatorISt13_Rb_tree_nodeISt4pairIKN4cvc58internal12NodeTemplateILb1EEESt5tupleIJNS2_8SkolemIdENS3_8TypeNodeES5_EEEEEC2Ev(ptr noundef nonnull align 1 dereferenceable(1) %3) #3
  ret void
}

; Function Attrs: mustprogress nounwind uwtable
define linkonce_odr hidden void @_ZNSt15_Rb_tree_headerC2Ev(ptr noundef nonnull align 8 dereferenceable(40) %0) unnamed_addr #4 comdat align 2 personality ptr @__gxx_personality_v0 {
  %2 = alloca ptr, align 8
  store ptr %0, ptr %2, align 8, !tbaa !202
  %3 = load ptr, ptr %2, align 8
  %4 = getelementptr inbounds nuw %"struct.std::_Rb_tree_header", ptr %3, i32 0, i32 0
  %5 = getelementptr inbounds nuw %"struct.std::_Rb_tree_node_base", ptr %4, i32 0, i32 0
  store i32 0, ptr %5, align 8, !tbaa !204
  invoke void @_ZNSt15_Rb_tree_header8_M_resetEv(ptr noundef nonnull align 8 dereferenceable(40) %3)
          to label %6 unwind label %7

6:                                                ; preds = %1
  ret void

7:                                                ; preds = %1
  %8 = landingpad { ptr, i32 }
          catch ptr null
  %9 = extractvalue { ptr, i32 } %8, 0
  call void @__clang_call_terminate(ptr %9) #20
  unreachable
}

; Function Attrs: mustprogress nounwind uwtable
define linkonce_odr hidden void @_ZNSt20_Rb_tree_key_compareISt4lessISt5tupleIJN4cvc58SkolemIdENS2_8internal8TypeNodeENS4_12NodeTemplateILb1EEEEEEEC2Ev(ptr noundef nonnull align 1 dereferenceable(1) %0) unnamed_addr #4 comdat align 2 {
  %2 = alloca ptr, align 8
  store ptr %0, ptr %2, align 8, !tbaa !200
  ret void
}

; Function Attrs: mustprogress nounwind uwtable
define linkonce_odr hidden void @_ZNSaISt13_Rb_tree_nodeISt4pairIKSt5tupleIJN4cvc58SkolemIdENS2_8internal8TypeNodeENS4_12NodeTemplateILb1EEEEES7_EEEC2Ev(ptr noundef nonnull align 1 dereferenceable(1) %0) unnamed_addr #4 comdat align 2 {
  %2 = alloca ptr, align 8
  store ptr %0, ptr %2, align 8, !tbaa !198
  %3 = load ptr, ptr %2, align 8
  call void @_ZNSt15__new_allocatorISt13_Rb_tree_nodeISt4pairIKSt5tupleIJN4cvc58SkolemIdENS3_8internal8TypeNodeENS5_12NodeTemplateILb1EEEEES8_EEEC2Ev(ptr noundef nonnull align 1 dereferenceable(1) %3) #3
  ret void
}

; Function Attrs: mustprogress nounwind uwtable
define linkonce_odr hidden void @_ZNSt8_Rb_treeIN4cvc58internal12NodeTemplateILb1EEESt4pairIKS3_St5tupleIJNS0_8SkolemIdENS1_8TypeNodeES3_EEESt10_Select1stISA_ESt4lessIS3_ESaISA_EE13_Rb_tree_implISE_Lb1EEC2Ev(ptr noundef nonnull align 8 dereferenceable(48) %0) unnamed_addr #4 comdat align 2 {
  %2 = alloca ptr, align 8
  store ptr %0, ptr %2, align 8, !tbaa !213
  %3 = load ptr, ptr %2, align 8
  call void @_ZNSaISt13_Rb_tree_nodeISt4pairIKN4cvc58internal12NodeTemplateILb1EEESt5tupleIJNS1_8SkolemIdENS2_8TypeNodeES4_EEEEEC2Ev(ptr noundef nonnull align 1 dereferenceable(1) %3) #3
  call void @_ZNSt20_Rb_tree_key_compareISt4lessIN4cvc58internal12NodeTemplateILb1EEEEEC2Ev(ptr noundef nonnull align 1 dereferenceable(1) %3) #3
  %4 = getelementptr inbounds i8, ptr %3, i64 8
  call void @_ZNSt15_Rb_tree_headerC2Ev(ptr noundef nonnull align 8 dereferenceable(40) %4) #3
  ret void
}

; Function Attrs: mustprogress nounwind uwtable
define linkonce_odr hidden void @_ZNSt8_Rb_treeISt5tupleIJN4cvc58SkolemIdENS1_8internal8TypeNodeENS3_12NodeTemplateILb1EEEEESt4pairIKS7_S6_ESt10_Select1stISA_ESt4lessIS7_ESaISA_EE13_Rb_tree_implISE_Lb1EEC2Ev(ptr noundef nonnull align 8 dereferenceable(48) %0) unnamed_addr #4 comdat align 2 {
  %2 = alloca ptr, align 8
  store ptr %0, ptr %2, align 8, !tbaa !196
  %3 = load ptr, ptr %2, align 8
  call void @_ZNSaISt13_Rb_tree_nodeISt4pairIKSt5tupleIJN4cvc58SkolemIdENS2_8internal8TypeNodeENS4_12NodeTemplateILb1EEEEES7_EEEC2Ev(ptr noundef nonnull align 1 dereferenceable(1) %3) #3
  call void @_ZNSt20_Rb_tree_key_compareISt4lessISt5tupleIJN4cvc58SkolemIdENS2_8internal8TypeNodeENS4_12NodeTemplateILb1EEEEEEEC2Ev(ptr noundef nonnull align 1 dereferenceable(1) %3) #3
  %4 = getelementptr inbounds i8, ptr %3, i64 8
  call void @_ZNSt15_Rb_tree_headerC2Ev(ptr noundef nonnull align 8 dereferenceable(40) %4) #3
  ret void
}

; Function Attrs: mustprogress nounwind uwtable
define linkonce_odr hidden void @_ZNSt8_Rb_treeIN4cvc58internal12NodeTemplateILb1EEESt4pairIKS3_St5tupleIJNS0_8SkolemIdENS1_8TypeNodeES3_EEESt10_Select1stISA_ESt4lessIS3_ESaISA_EEC2Ev(ptr noundef nonnull align 8 dereferenceable(48) %0) unnamed_addr #4 comdat align 2 {
  %2 = alloca ptr, align 8
  store ptr %0, ptr %2, align 8, !tbaa !211
  %3 = load ptr, ptr %2, align 8
  %4 = getelementptr inbounds nuw %"class.std::_Rb_tree.1", ptr %3, i32 0, i32 0
  call void @_ZNSt8_Rb_treeIN4cvc58internal12NodeTemplateILb1EEESt4pairIKS3_St5tupleIJNS0_8SkolemIdENS1_8TypeNodeES3_EEESt10_Select1stISA_ESt4lessIS3_ESaISA_EE13_Rb_tree_implISE_Lb1EEC2Ev(ptr noundef nonnull align 8 dereferenceable(48) %4) #3
  ret void
}

; Function Attrs: mustprogress nounwind uwtable
define linkonce_odr hidden void @_ZNSt8_Rb_treeISt5tupleIJN4cvc58SkolemIdENS1_8internal8TypeNodeENS3_12NodeTemplateILb1EEEEESt4pairIKS7_S6_ESt10_Select1stISA_ESt4lessIS7_ESaISA_EEC2Ev(ptr noundef nonnull align 8 dereferenceable(48) %0) unnamed_addr #4 comdat align 2 {
  %2 = alloca ptr, align 8
  store ptr %0, ptr %2, align 8, !tbaa !194
  %3 = load ptr, ptr %2, align 8
  %4 = getelementptr inbounds nuw %"class.std::_Rb_tree", ptr %3, i32 0, i32 0
  call void @_ZNSt8_Rb_treeISt5tupleIJN4cvc58SkolemIdENS1_8internal8TypeNodeENS3_12NodeTemplateILb1EEEEESt4pairIKS7_S6_ESt10_Select1stISA_ESt4lessIS7_ESaISA_EE13_Rb_tree_implISE_Lb1EEC2Ev(ptr noundef nonnull align 8 dereferenceable(48) %4) #3
  ret void
}

; Function Attrs: mustprogress nounwind uwtable
define linkonce_odr hidden void @_ZNSt3mapIN4cvc58internal12NodeTemplateILb1EEESt5tupleIJNS0_8SkolemIdENS1_8TypeNodeES3_EESt4lessIS3_ESaISt4pairIKS3_S7_EEEC2Ev(ptr noundef nonnull align 8 dereferenceable(48) %0) unnamed_addr #4 comdat align 2 {
  %2 = alloca ptr, align 8
  store ptr %0, ptr %2, align 8, !tbaa !27
  %3 = load ptr, ptr %2, align 8
  %4 = getelementptr inbounds nuw %"class.std::map.0", ptr %3, i32 0, i32 0
  call void @_ZNSt8_Rb_treeIN4cvc58internal12NodeTemplateILb1EEESt4pairIKS3_St5tupleIJNS0_8SkolemIdENS1_8TypeNodeES3_EEESt10_Select1stISA_ESt4lessIS3_ESaISA_EEC2Ev(ptr noundef nonnull align 8 dereferenceable(48) %4) #3
  ret void
}

; Function Attrs: mustprogress nounwind uwtable
define linkonce_odr hidden void @_ZNSt3mapISt5tupleIJN4cvc58SkolemIdENS1_8internal8TypeNodeENS3_12NodeTemplateILb1EEEEES6_St4lessIS7_ESaISt4pairIKS7_S6_EEEC2Ev(ptr noundef nonnull align 8 dereferenceable(48) %0) unnamed_addr #4 comdat align 2 {
  %2 = alloca ptr, align 8
  store ptr %0, ptr %2, align 8, !tbaa !25
  %3 = load ptr, ptr %2, align 8
  %4 = getelementptr inbounds nuw %"class.std::map", ptr %3, i32 0, i32 0
  call void @_ZNSt8_Rb_treeISt5tupleIJN4cvc58SkolemIdENS1_8internal8TypeNodeENS3_12NodeTemplateILb1EEEEESt4pairIKS7_S6_ESt10_Select1stISA_ESt4lessIS7_ESaISA_EEC2Ev(ptr noundef nonnull align 8 dereferenceable(48) %4) #3
  ret void
}

; Function Attrs: mustprogress nounwind uwtable
define hidden void @_ZN4cvc58internal13SkolemManagerC2Ev(ptr noundef nonnull align 8 dereferenceable(104) %0) unnamed_addr #4 align 2 {
  %2 = alloca ptr, align 8
  store ptr %0, ptr %2, align 8, !tbaa !3
  %3 = load ptr, ptr %2, align 8
  %4 = getelementptr inbounds nuw %"class.cvc5::internal::SkolemManager", ptr %3, i32 0, i32 0
  call void @_ZNSt3mapISt5tupleIJN4cvc58SkolemIdENS1_8internal8TypeNodeENS3_12NodeTemplateILb1EEEEES6_St4lessIS7_ESaISt4pairIKS7_S6_EEEC2Ev(ptr noundef nonnull align 8 dereferenceable(48) %4) #3
  %5 = getelementptr inbounds nuw %"class.cvc5::internal::SkolemManager", ptr %3, i32 0, i32 1
  call void @_ZNSt3mapIN4cvc58internal12NodeTemplateILb1EEESt5tupleIJNS0_8SkolemIdENS1_8TypeNodeES3_EESt4lessIS3_ESaISt4pairIKS3_S7_EEEC2Ev(ptr noundef nonnull align 8 dereferenceable(48) %5) #3
  %6 = getelementptr inbounds nuw %"class.cvc5::internal::SkolemManager", ptr %3, i32 0, i32 2
  store i64 0, ptr %6, align 8, !tbaa !8
  ret void
}